target datalayout = "e-m:e-p270:32:32-p271:32:32-p272:64:64-i64:64-i128:128-f80:128-n8:16:32:64-S128"
target triple = "x86_64-pc-linux-gnu"

%struct.ident_t = type { i32, i32, i32, i32, ptr }

@1 = private unnamed_addr constant %struct.ident_t { i32 0, i32 514, i32 0, i32 22, ptr @0 }, align 8
@.gomp_critical_user_.reduction.var = common global [8 x i32] zeroinitializer, align 8
@4 = private unnamed_addr constant %struct.ident_t { i32 0, i32 18, i32 0, i32 22, ptr @0 }, align 8

; Function Attrs: norecurse nounwind uwtable
define internal void @_ZNK5faiss8IndexNSG15check_knn_graphEPKlli.omp_outlined(ptr noalias noundef %0, ptr noalias noundef %1, ptr noundef nonnull align 8 dereferenceable(8) %2, ptr noundef nonnull align 4 dereferenceable(4) %3, ptr noundef nonnull align 8 dereferenceable(8) %4, ptr noundef nonnull align 8 dereferenceable(8) %5) #6 {
  %7 = alloca ptr, align 8
  %8 = alloca ptr, align 8
  %9 = alloca ptr, align 8
  %10 = alloca ptr, align 8
  %11 = alloca ptr, align 8
  %12 = alloca ptr, align 8
  %13 = alloca i64, align 8
  %14 = alloca i64, align 8
  %15 = alloca i64, align 8
  %16 = alloca i64, align 8
  %17 = alloca i64, align 8
  %18 = alloca i64, align 8
  %19 = alloca i64, align 8
  %20 = alloca i32, align 4
  %21 = alloca i64, align 8
  %22 = alloca i64, align 8
  %23 = alloca i32, align 4
  %24 = alloca i32, align 4
  %25 = alloca i64, align 8
  %26 = alloca [1 x ptr], align 8
  store ptr %0, ptr %7, align 8
  store ptr %1, ptr %8, align 8
  store ptr %2, ptr %9, align 8
  store ptr %3, ptr %10, align 8
  store ptr %4, ptr %11, align 8
  store ptr %5, ptr %12, align 8
  %27 = load ptr, ptr %9, align 8
  %28 = load ptr, ptr %10, align 8
  %29 = load ptr, ptr %11, align 8
  %30 = load ptr, ptr %12, align 8
  %31 = load i64, ptr %27, align 8
  store i64 %31, ptr %14, align 8
  %32 = load i64, ptr %14, align 8
  %33 = sub nsw i64 %32, 0
  %34 = sdiv i64 %33, 1
  %35 = sub nsw i64 %34, 1
  store i64 %35, ptr %15, align 8
  store i64 0, ptr %16, align 8
  %36 = load i64, ptr %14, align 8
  %37 = icmp slt i64 0, %36
  br i1 %37, label %38, label %117

38:                                               ; preds = %6
  store i64 0, ptr %17, align 8
  %39 = load i64, ptr %15, align 8
  store i64 %39, ptr %18, align 8
  store i64 1, ptr %19, align 8
  store i32 0, ptr %20, align 4
  store i64 0, ptr %21, align 8
  %40 = load ptr, ptr %7, align 8
  %41 = load i32, ptr %40, align 4
  call void @__kmpc_for_static_init_8(ptr @1, i32 %41, i32 34, ptr %20, ptr %17, ptr %18, ptr %19, i64 1, i64 1)
  %42 = load i64, ptr %18, align 8
  %43 = load i64, ptr %15, align 8
  %44 = icmp sgt i64 %42, %43
  br i1 %44, label %45, label %47

45:                                               ; preds = %38
  %46 = load i64, ptr %15, align 8
  br label %49

47:                                               ; preds = %38
  %48 = load i64, ptr %18, align 8
  br label %49

49:                                               ; preds = %47, %45
  %50 = phi i64 [ %46, %45 ], [ %48, %47 ]
  store i64 %50, ptr %18, align 8
  %51 = load i64, ptr %17, align 8
  store i64 %51, ptr %13, align 8
  br label %52

52:                                               ; preds = %98, %49
  %53 = load i64, ptr %13, align 8
  %54 = load i64, ptr %18, align 8
  %55 = icmp sle i64 %53, %54
  br i1 %55, label %56, label %101

56:                                               ; preds = %52
  %57 = load i64, ptr %13, align 8
  %58 = mul nsw i64 %57, 1
  %59 = add nsw i64 0, %58
  store i64 %59, ptr %22, align 8
  store i32 0, ptr %23, align 4
  store i32 0, ptr %24, align 4
  br label %60

60:                                               ; preds = %89, %56
  %61 = load i32, ptr %24, align 4
  %62 = load i32, ptr %28, align 4
  %63 = icmp slt i32 %61, %62
  br i1 %63, label %64, label %92

64:                                               ; preds = %60
  %65 = load ptr, ptr %29, align 8
  %66 = load i64, ptr %22, align 8
  %67 = load i32, ptr %28, align 4
  %68 = sext i32 %67 to i64
  %69 = mul nsw i64 %66, %68
  %70 = load i32, ptr %24, align 4
  %71 = sext i32 %70 to i64
  %72 = add nsw i64 %69, %71
  %73 = getelementptr inbounds i64, ptr %65, i64 %72
  %74 = load i64, ptr %73, align 8
  store i64 %74, ptr %25, align 8
  %75 = load i64, ptr %25, align 8
  %76 = icmp slt i64 %75, 0
  br i1 %76, label %85, label %77

77:                                               ; preds = %64
  %78 = load i64, ptr %25, align 8
  %79 = load i64, ptr %27, align 8
  %80 = icmp sge i64 %78, %79
  br i1 %80, label %85, label %81

81:                                               ; preds = %77
  %82 = load i64, ptr %25, align 8
  %83 = load i64, ptr %22, align 8
  %84 = icmp eq i64 %82, %83
  br i1 %84, label %85, label %88

85:                                               ; preds = %81, %77, %64
  %86 = load i32, ptr %23, align 4
  %87 = add nsw i32 %86, 1
  store i32 %87, ptr %23, align 4
  br label %88

88:                                               ; preds = %85, %81
  br label %89

89:                                               ; preds = %88
  %90 = load i32, ptr %24, align 4
  %91 = add nsw i32 %90, 1
  store i32 %91, ptr %24, align 4
  br label %60, !llvm.loop !14

92:                                               ; preds = %60
  %93 = load i32, ptr %23, align 4
  %94 = sext i32 %93 to i64
  %95 = load i64, ptr %21, align 8
  %96 = add nsw i64 %95, %94
  store i64 %96, ptr %21, align 8
  br label %97

97:                                               ; preds = %92
  br label %98

98:                                               ; preds = %97
  %99 = load i64, ptr %13, align 8
  %100 = add nsw i64 %99, 1
  store i64 %100, ptr %13, align 8
  br label %52

101:                                              ; preds = %52
  br label %102

102:                                              ; preds = %101
  %103 = load ptr, ptr %7, align 8
  %104 = load i32, ptr %103, align 4
  call void @__kmpc_for_static_fini(ptr @1, i32 %104)
  %105 = getelementptr inbounds [1 x ptr], ptr %26, i64 0, i64 0
  store ptr %21, ptr %105, align 8
  %106 = load ptr, ptr %7, align 8
  %107 = load i32, ptr %106, align 4
  %108 = call i32 @__kmpc_reduce_nowait(ptr @4, i32 %107, i32 1, i64 8, ptr %26, ptr @_ZNK5faiss8IndexNSG15check_knn_graphEPKlli.omp_outlined.omp.reduction.reduction_func, ptr @.gomp_critical_user_.reduction.var)
  switch i32 %108, label %116 [
    i32 1, label %109
    i32 2, label %113
  ]

109:                                              ; preds = %102
  %110 = load i64, ptr %30, align 8
  %111 = load i64, ptr %21, align 8
  %112 = add nsw i64 %110, %111
  store i64 %112, ptr %30, align 8
  call void @__kmpc_end_reduce_nowait(ptr @4, i32 %107, ptr @.gomp_critical_user_.reduction.var)
  br label %116

113:                                              ; preds = %102
  %114 = load i64, ptr %21, align 8
  %115 = atomicrmw add ptr %30, i64 %114 monotonic, align 8
  br label %116

116:                                              ; preds = %113, %109, %102
  br label %117

117:                                              ; preds = %116, %6
  ret void
}