; Function Attrs: norecurse nounwind uwtable
define internal void @_ZNK5faiss8IndexNSG15check_knn_graphEPKlli.omp_outlined(ptr noalias nocapture noundef readonly %0, ptr noalias nocapture readnone %1, ptr nocapture noundef nonnull readonly align 8 dereferenceable(8) %2, ptr nocapture noundef nonnull readonly align 4 dereferenceable(4) %3, ptr nocapture noundef nonnull readonly align 8 dereferenceable(8) %4, ptr nocapture noundef nonnull align 8 dereferenceable(8) %5) #7 {
  %7 = alloca i64, align 8
  %8 = alloca i64, align 8
  %9 = alloca i64, align 8
  %10 = alloca i32, align 4
  %11 = alloca i64, align 8
  %12 = alloca [1 x ptr], align 8
  %13 = load i64, ptr %2, align 8
  %14 = icmp sgt i64 %13, 0
  br i1 %14, label %15, label %46

15:                                               ; preds = %6
  %16 = add nsw i64 %13, -1
  store i64 0, ptr %7, align 8
  store i64 %16, ptr %8, align 8
  store i64 1, ptr %9, align 8
  store i32 0, ptr %10, align 4
  store i64 0, ptr %11, align 8
  %17 = load i32, ptr %0, align 4
  call void @__kmpc_for_static_init_8(ptr nonnull @1, i32 %17, i32 34, ptr nonnull %10, ptr nonnull %7, ptr nonnull %8, ptr nonnull %9, i64 1, i64 1)
  %18 = load i64, ptr %8, align 8
  %19 = call i64 @llvm.smin.i64(i64 %18, i64 %16)
  store i64 %19, ptr %8, align 8
  %20 = load i64, ptr %7, align 8
  %.not34 = icmp sgt i64 %20, %19
  br i1 %.not34, label %._crit_edge36, label %.preheader.lr.ph

.preheader.lr.ph:                                 ; preds = %15
  %21 = load i32, ptr %3, align 4
  %22 = icmp sgt i32 %21, 0
  %23 = load ptr, ptr %4, align 8
  %24 = sext i32 %21 to i64
  %25 = load i64, ptr %2, align 8
  br i1 %22, label %.preheader.us.preheader, label %.preheader.lr.ph.split

.preheader.us.preheader:                          ; preds = %.preheader.lr.ph
  %wide.trip.count = zext nneg i32 %21 to i64
  br label %.preheader.us

.preheader.us:                                    ; preds = %.preheader.us.preheader, %._crit_edge.us
  %.035.us = phi i64 [ %37, %._crit_edge.us ], [ %20, %.preheader.us.preheader ]
  %26 = phi i64 [ %36, %._crit_edge.us ], [ 0, %.preheader.us.preheader ]
  %27 = mul nsw i64 %.035.us, %24
  %28 = getelementptr i64, ptr %23, i64 %27
  br label %29

29:                                               ; preds = %.preheader.us, %29
  %indvars.iv = phi i64 [ 0, %.preheader.us ], [ %indvars.iv.next, %29 ]
  %.02532.us = phi i32 [ 0, %.preheader.us ], [ %.1.us, %29 ]
  %30 = getelementptr i64, ptr %28, i64 %indvars.iv
  %31 = load i64, ptr %30, align 8
  %32 = icmp slt i64 %31, 0
  %.not28.us = icmp sge i64 %31, %25
  %or.cond.not31.us = select i1 %32, i1 true, i1 %.not28.us
  %33 = icmp eq i64 %31, %.035.us
  %or.cond29.us = or i1 %33, %or.cond.not31.us
  %34 = zext i1 %or.cond29.us to i32
  %.1.us = add nuw nsw i32 %.02532.us, %34
  %indvars.iv.next = add nuw nsw i64 %indvars.iv, 1
  %exitcond.not = icmp eq i64 %indvars.iv.next, %wide.trip.count
  br i1 %exitcond.not, label %._crit_edge.us, label %29, !llvm.loop !15

._crit_edge.us:                                   ; preds = %29
  %35 = zext nneg i32 %.1.us to i64
  %36 = add nuw nsw i64 %26, %35
  store i64 %36, ptr %11, align 8
  %37 = add i64 %.035.us, 1
  %exitcond39.not = icmp eq i64 %.035.us, %19
  br i1 %exitcond39.not, label %._crit_edge36, label %.preheader.us

.preheader.lr.ph.split:                           ; preds = %.preheader.lr.ph
  store i64 0, ptr %11, align 8
  br label %._crit_edge36

._crit_edge36:                                    ; preds = %._crit_edge.us, %.preheader.lr.ph.split, %15
  call void @__kmpc_for_static_fini(ptr nonnull @1, i32 %17)
  store ptr %11, ptr %12, align 8
  %38 = call i32 @__kmpc_reduce_nowait(ptr nonnull @4, i32 %17, i32 1, i64 8, ptr nonnull %12, ptr nonnull @_ZNK5faiss8IndexNSG15check_knn_graphEPKlli.omp_outlined.omp.reduction.reduction_func, ptr nonnull @.gomp_critical_user_.reduction.var)
  switch i32 %38, label %46 [
    i32 1, label %39
    i32 2, label %43
  ]

39:                                               ; preds = %._crit_edge36
  %40 = load i64, ptr %5, align 8
  %41 = load i64, ptr %11, align 8
  %42 = add nsw i64 %41, %40
  store i64 %42, ptr %5, align 8
  call void @__kmpc_end_reduce_nowait(ptr nonnull @4, i32 %17, ptr nonnull @.gomp_critical_user_.reduction.var)
  br label %46

43:                                               ; preds = %._crit_edge36
  %44 = load i64, ptr %11, align 8
  %45 = atomicrmw add ptr %5, i64 %44 monotonic, align 8
  br label %46

46:                                               ; preds = %._crit_edge36, %39, %43, %6
  ret void
}